target datalayout = "e-m:e-p270:32:32-p271:32:32-p272:64:64-i64:64-i128:128-f80:128-n8:16:32:64-S128"
target triple = "x86_64-pc-linux-gnu"

%struct.CVodeMemRec = type { ptr, double, ptr, ptr, i32, i32, double, double, ptr, i32, i32, ptr, ptr, i32, [13 x ptr], ptr, ptr, ptr, ptr, ptr, ptr, ptr, ptr, ptr, i32, i32, double, i32, i32, i32, i32, i32, double, double, double, double, double, double, double, double, [14 x double], [6 x double], [13 x double], double, double, double, double, double, double, double, i32, double, i32, i64, i32, i32, i32, double, double, double, double, double, double, double, double, double, double, double, double, i64, i32, i64, i64, i64, i64, i64, i64, i64, i32, double, double, double, i64, i64, i64, i64, ptr, i32, ptr, i32, ptr, ptr, ptr, ptr, ptr, i64, double, i32, i64, double, double, double, i32, double, i32, i32, i32, i32, i32, ptr, i64, i32, [6 x [4 x double]], i32, i64, ptr, i32, ptr, ptr, double, double, double, ptr, ptr, ptr, double, double, i32, i32, i64, ptr, i32, ptr, i32, i32, [13 x double], [13 x double], [13 x ptr], i32 }

@.str = private unnamed_addr constant [113 x i8] c"generated/home/dtcxzyw/WorkSpace/Projects/compilers/llvm-opt-benchmark/bench/sundials/sundials/src/cvode/cvode.c\00", align 1
@.str.4 = private unnamed_addr constant [26 x i8] c"cvode_mem = NULL illegal.\00", align 1
@.str.5 = private unnamed_addr constant [19 x i8] c"y0 = NULL illegal.\00", align 1
@__func__.CVodeReInit = private unnamed_addr constant [12 x i8] c"CVodeReInit\00", align 1
@.str.10 = private unnamed_addr constant [34 x i8] c"Attempt to call before CVodeInit.\00", align 1

; Function Attrs: nounwind uwtable
define i32 @CVodeReInit(ptr noundef %0, double noundef %1, ptr noundef %2) #0 {
  %4 = alloca i32, align 4
  %5 = alloca ptr, align 8
  %6 = alloca double, align 8
  %7 = alloca ptr, align 8
  %8 = alloca ptr, align 8
  %9 = alloca i32, align 4
  %10 = alloca i32, align 4
  %11 = alloca i32, align 4
  store ptr %0, ptr %5, align 8, !tbaa !89
  store double %1, ptr %6, align 8, !tbaa !90
  store ptr %2, ptr %7, align 8, !tbaa !91
  call void @llvm.lifetime.start.p0(i64 8, ptr %8) #10
  call void @llvm.lifetime.start.p0(i64 4, ptr %9) #10
  call void @llvm.lifetime.start.p0(i64 4, ptr %10) #10
  %12 = load ptr, ptr %5, align 8, !tbaa !89
  %13 = icmp eq ptr %12, null
  br i1 %13, label %14, label %15

14:                                               ; preds = %3
  call void (ptr, i32, i32, ptr, ptr, ptr, ...) @cvProcessError(ptr noundef null, i32 noundef -21, i32 noundef 561, ptr noundef @__func__.CVodeReInit, ptr noundef @.str, ptr noundef @.str.4)
  store i32 -21, ptr %4, align 4
  store i32 1, ptr %11, align 4
  br label %115

15:                                               ; preds = %3
  %16 = load ptr, ptr %5, align 8, !tbaa !89
  store ptr %16, ptr %8, align 8, !tbaa !10
  %17 = load ptr, ptr %8, align 8, !tbaa !10
  %18 = getelementptr inbounds nuw %struct.CVodeMemRec, ptr %17, i32 0, i32 107
  %19 = load i32, ptr %18, align 4, !tbaa !76
  %20 = icmp eq i32 %19, 0
  br i1 %20, label %21, label %23

21:                                               ; preds = %15
  %22 = load ptr, ptr %8, align 8, !tbaa !10
  call void (ptr, i32, i32, ptr, ptr, ptr, ...) @cvProcessError(ptr noundef %22, i32 noundef -23, i32 noundef 572, ptr noundef @__func__.CVodeReInit, ptr noundef @.str, ptr noundef @.str.10)
  store i32 -23, ptr %4, align 4
  store i32 1, ptr %11, align 4
  br label %115

23:                                               ; preds = %15
  %24 = load ptr, ptr %7, align 8, !tbaa !91
  %25 = icmp eq ptr %24, null
  br i1 %25, label %26, label %28

26:                                               ; preds = %23
  %27 = load ptr, ptr %8, align 8, !tbaa !10
  call void (ptr, i32, i32, ptr, ptr, ptr, ...) @cvProcessError(ptr noundef %27, i32 noundef -22, i32 noundef 582, ptr noundef @__func__.CVodeReInit, ptr noundef @.str, ptr noundef @.str.5)
  store i32 -22, ptr %4, align 4
  store i32 1, ptr %11, align 4
  br label %115

28:                                               ; preds = %23
  %29 = load double, ptr %6, align 8, !tbaa !90
  %30 = load ptr, ptr %8, align 8, !tbaa !10
  %31 = getelementptr inbounds nuw %struct.CVodeMemRec, ptr %30, i32 0, i32 38
  store double %29, ptr %31, align 8, !tbaa !99
  %32 = load ptr, ptr %8, align 8, !tbaa !10
  %33 = getelementptr inbounds nuw %struct.CVodeMemRec, ptr %32, i32 0, i32 27
  store i32 1, ptr %33, align 8, !tbaa !101
  %34 = load ptr, ptr %8, align 8, !tbaa !10
  %35 = getelementptr inbounds nuw %struct.CVodeMemRec, ptr %34, i32 0, i32 31
  store i32 2, ptr %35, align 8, !tbaa !102
  %36 = load ptr, ptr %8, align 8, !tbaa !10
  %37 = getelementptr inbounds nuw %struct.CVodeMemRec, ptr %36, i32 0, i32 31
  %38 = load i32, ptr %37, align 8, !tbaa !102
  %39 = load ptr, ptr %8, align 8, !tbaa !10
  %40 = getelementptr inbounds nuw %struct.CVodeMemRec, ptr %39, i32 0, i32 30
  store i32 %38, ptr %40, align 4, !tbaa !103
  %41 = load ptr, ptr %8, align 8, !tbaa !10
  %42 = getelementptr inbounds nuw %struct.CVodeMemRec, ptr %41, i32 0, i32 62
  %43 = load double, ptr %42, align 8, !tbaa !41
  %44 = load ptr, ptr %8, align 8, !tbaa !10
  %45 = getelementptr inbounds nuw %struct.CVodeMemRec, ptr %44, i32 0, i32 59
  store double %43, ptr %45, align 8, !tbaa !104
  %46 = load ptr, ptr %8, align 8, !tbaa !10
  %47 = getelementptr inbounds nuw %struct.CVodeMemRec, ptr %46, i32 0, i32 97
  store i32 0, ptr %47, align 8, !tbaa !105
  %48 = load ptr, ptr %8, align 8, !tbaa !10
  %49 = getelementptr inbounds nuw %struct.CVodeMemRec, ptr %48, i32 0, i32 100
  store double 0.000000e+00, ptr %49, align 8, !tbaa !106
  %50 = load ptr, ptr %8, align 8, !tbaa !10
  %51 = getelementptr inbounds nuw %struct.CVodeMemRec, ptr %50, i32 0, i32 103
  store double 1.000000e+00, ptr %51, align 8, !tbaa !107
  %52 = load ptr, ptr %7, align 8, !tbaa !91
  %53 = load ptr, ptr %8, align 8, !tbaa !10
  %54 = getelementptr inbounds nuw %struct.CVodeMemRec, ptr %53, i32 0, i32 14
  %55 = getelementptr inbounds [13 x ptr], ptr %54, i64 0, i64 0
  %56 = load ptr, ptr %55, align 8, !tbaa !91
  call void @N_VScale(double noundef 1.000000e+00, ptr noundef %52, ptr noundef %56)
  %57 = load ptr, ptr %8, align 8, !tbaa !10
  %58 = getelementptr inbounds nuw %struct.CVodeMemRec, ptr %57, i32 0, i32 71
  store i64 0, ptr %58, align 8, !tbaa !113
  %59 = load ptr, ptr %8, align 8, !tbaa !10
  %60 = getelementptr inbounds nuw %struct.CVodeMemRec, ptr %59, i32 0, i32 72
  store i64 0, ptr %60, align 8, !tbaa !114
  %61 = load ptr, ptr %8, align 8, !tbaa !10
  %62 = getelementptr inbounds nuw %struct.CVodeMemRec, ptr %61, i32 0, i32 73
  store i64 0, ptr %62, align 8, !tbaa !115
  %63 = load ptr, ptr %8, align 8, !tbaa !10
  %64 = getelementptr inbounds nuw %struct.CVodeMemRec, ptr %63, i32 0, i32 76
  store i64 0, ptr %64, align 8, !tbaa !116
  %65 = load ptr, ptr %8, align 8, !tbaa !10
  %66 = getelementptr inbounds nuw %struct.CVodeMemRec, ptr %65, i32 0, i32 74
  store i64 0, ptr %66, align 8, !tbaa !117
  %67 = load ptr, ptr %8, align 8, !tbaa !10
  %68 = getelementptr inbounds nuw %struct.CVodeMemRec, ptr %67, i32 0, i32 75
  store i64 0, ptr %68, align 8, !tbaa !118
  %69 = load ptr, ptr %8, align 8, !tbaa !10
  %70 = getelementptr inbounds nuw %struct.CVodeMemRec, ptr %69, i32 0, i32 77
  store i64 0, ptr %70, align 8, !tbaa !119
  %71 = load ptr, ptr %8, align 8, !tbaa !10
  %72 = getelementptr inbounds nuw %struct.CVodeMemRec, ptr %71, i32 0, i32 78
  store i32 0, ptr %72, align 8, !tbaa !120
  %73 = load ptr, ptr %8, align 8, !tbaa !10
  %74 = getelementptr inbounds nuw %struct.CVodeMemRec, ptr %73, i32 0, i32 98
  store i64 0, ptr %74, align 8, !tbaa !121
  %75 = load ptr, ptr %8, align 8, !tbaa !10
  %76 = getelementptr inbounds nuw %struct.CVodeMemRec, ptr %75, i32 0, i32 113
  store i32 0, ptr %76, align 8, !tbaa !122
  %77 = load ptr, ptr %8, align 8, !tbaa !10
  %78 = getelementptr inbounds nuw %struct.CVodeMemRec, ptr %77, i32 0, i32 129
  store i64 0, ptr %78, align 8, !tbaa !123
  %79 = load ptr, ptr %8, align 8, !tbaa !10
  %80 = getelementptr inbounds nuw %struct.CVodeMemRec, ptr %79, i32 0, i32 128
  store i32 0, ptr %80, align 4, !tbaa !124
  %81 = load ptr, ptr %8, align 8, !tbaa !10
  %82 = getelementptr inbounds nuw %struct.CVodeMemRec, ptr %81, i32 0, i32 99
  store double 0.000000e+00, ptr %82, align 8, !tbaa !125
  %83 = load ptr, ptr %8, align 8, !tbaa !10
  %84 = getelementptr inbounds nuw %struct.CVodeMemRec, ptr %83, i32 0, i32 35
  store double 0.000000e+00, ptr %84, align 8, !tbaa !126
  %85 = load ptr, ptr %8, align 8, !tbaa !10
  %86 = getelementptr inbounds nuw %struct.CVodeMemRec, ptr %85, i32 0, i32 29
  store i32 0, ptr %86, align 8, !tbaa !127
  %87 = load ptr, ptr %8, align 8, !tbaa !10
  %88 = getelementptr inbounds nuw %struct.CVodeMemRec, ptr %87, i32 0, i32 114
  store i64 0, ptr %88, align 8, !tbaa !128
  store i32 1, ptr %9, align 4, !tbaa !3
  br label %89

89:                                               ; preds = %111, %28
  %90 = load i32, ptr %9, align 4, !tbaa !3
  %91 = icmp sle i32 %90, 5
  br i1 %91, label %92, label %114

92:                                               ; preds = %89
  store i32 1, ptr %10, align 4, !tbaa !3
  br label %93

93:                                               ; preds = %107, %92
  %94 = load i32, ptr %10, align 4, !tbaa !3
  %95 = icmp sle i32 %94, 3
  br i1 %95, label %96, label %110

96:                                               ; preds = %93
  %97 = load ptr, ptr %8, align 8, !tbaa !10
  %98 = getelementptr inbounds nuw %struct.CVodeMemRec, ptr %97, i32 0, i32 112
  %99 = load i32, ptr %9, align 4, !tbaa !3
  %100 = sub nsw i32 %99, 1
  %101 = sext i32 %100 to i64
  %102 = getelementptr inbounds [6 x [4 x double]], ptr %98, i64 0, i64 %101
  %103 = load i32, ptr %10, align 4, !tbaa !3
  %104 = sub nsw i32 %103, 1
  %105 = sext i32 %104 to i64
  %106 = getelementptr inbounds [4 x double], ptr %102, i64 0, i64 %105
  store double 0.000000e+00, ptr %106, align 8, !tbaa !90
  br label %107

107:                                              ; preds = %96
  %108 = load i32, ptr %10, align 4, !tbaa !3
  %109 = add nsw i32 %108, 1
  store i32 %109, ptr %10, align 4, !tbaa !3
  br label %93

110:                                              ; preds = %93
  br label %111

111:                                              ; preds = %110
  %112 = load i32, ptr %9, align 4, !tbaa !3
  %113 = add nsw i32 %112, 1
  store i32 %113, ptr %9, align 4, !tbaa !3
  br label %89

114:                                              ; preds = %89
  store i32 0, ptr %4, align 4
  store i32 1, ptr %11, align 4
  br label %115

115:                                              ; preds = %114, %26, %21, %14
  call void @llvm.lifetime.end.p0(i64 4, ptr %10) #10
  call void @llvm.lifetime.end.p0(i64 4, ptr %9) #10
  call void @llvm.lifetime.end.p0(i64 8, ptr %8) #10
  %116 = load i32, ptr %4, align 4
  ret i32 %116
}