; Function Attrs: nounwind uwtable
define range(i32 -23, 1) i32 @CVodeReInit(ptr noundef captures(address_is_null) %0, double noundef %1, ptr noundef %2) local_unnamed_addr #0 {
  %4 = icmp eq ptr %0, null
  br i1 %4, label %5, label %6

5:                                                ; preds = %3
  tail call void (ptr, i32, i32, ptr, ptr, ptr, ...) @cvProcessError(ptr noundef null, i32 noundef -21, i32 noundef 561, ptr noundef nonnull @__func__.CVodeReInit, ptr noundef nonnull @.str, ptr noundef nonnull @.str.4)
  br label %.loopexit

6:                                                ; preds = %3
  %7 = getelementptr inbounds nuw i8, ptr %0, i64 1132
  %8 = load i32, ptr %7, align 4, !tbaa !97
  %9 = icmp eq i32 %8, 0
  br i1 %9, label %10, label %11

10:                                               ; preds = %6
  tail call void (ptr, i32, i32, ptr, ptr, ptr, ...) @cvProcessError(ptr noundef nonnull %0, i32 noundef -23, i32 noundef 572, ptr noundef nonnull @__func__.CVodeReInit, ptr noundef nonnull @.str, ptr noundef nonnull @.str.10)
  br label %.loopexit

11:                                               ; preds = %6
  %12 = icmp eq ptr %2, null
  br i1 %12, label %13, label %14

13:                                               ; preds = %11
  tail call void (ptr, i32, i32, ptr, ptr, ptr, ...) @cvProcessError(ptr noundef nonnull %0, i32 noundef -22, i32 noundef 582, ptr noundef nonnull @__func__.CVodeReInit, ptr noundef nonnull @.str, ptr noundef nonnull @.str.5)
  br label %.loopexit

14:                                               ; preds = %11
  %15 = getelementptr inbounds nuw i8, ptr %0, i64 360
  store double %1, ptr %15, align 8, !tbaa !81
  %16 = getelementptr inbounds nuw i8, ptr %0, i64 288
  store i32 1, ptr %16, align 8, !tbaa !83
  %17 = getelementptr inbounds nuw i8, ptr %0, i64 304
  store i32 2, ptr %17, align 8, !tbaa !84
  %18 = getelementptr inbounds nuw i8, ptr %0, i64 300
  store i32 2, ptr %18, align 4, !tbaa !85
  %19 = getelementptr inbounds nuw i8, ptr %0, i64 784
  %20 = load double, ptr %19, align 8, !tbaa !24
  %21 = getelementptr inbounds nuw i8, ptr %0, i64 760
  store double %20, ptr %21, align 8, !tbaa !86
  %22 = getelementptr inbounds nuw i8, ptr %0, i64 1064
  store i32 0, ptr %22, align 8, !tbaa !87
  %23 = getelementptr inbounds nuw i8, ptr %0, i64 1088
  store double 0.000000e+00, ptr %23, align 8, !tbaa !88
  %24 = getelementptr inbounds nuw i8, ptr %0, i64 1112
  store double 1.000000e+00, ptr %24, align 8, !tbaa !89
  %25 = getelementptr inbounds nuw i8, ptr %0, i64 96
  %26 = load ptr, ptr %25, align 8, !tbaa !79
  tail call void @N_VScale(double noundef 1.000000e+00, ptr noundef nonnull %2, ptr noundef %26) #13
  %27 = getelementptr inbounds nuw i8, ptr %0, i64 856
  %28 = getelementptr inbounds nuw i8, ptr %0, i64 1072
  %29 = getelementptr inbounds nuw i8, ptr %0, i64 1360
  store i32 0, ptr %29, align 8, !tbaa !90
  %30 = getelementptr inbounds nuw i8, ptr %0, i64 1480
  store i64 0, ptr %30, align 8, !tbaa !91
  %31 = getelementptr inbounds nuw i8, ptr %0, i64 1476
  store i32 0, ptr %31, align 4, !tbaa !92
  %32 = getelementptr inbounds nuw i8, ptr %0, i64 336
  store double 0.000000e+00, ptr %32, align 8, !tbaa !93
  %33 = getelementptr inbounds nuw i8, ptr %0, i64 296
  store i32 0, ptr %33, align 8, !tbaa !94
  %34 = getelementptr inbounds nuw i8, ptr %0, i64 1368
  store i64 0, ptr %34, align 8, !tbaa !95
  tail call void @llvm.memset.p0.i64(ptr noundef nonnull align 8 dereferenceable(60) %27, i8 0, i64 60, i1 false)
  tail call void @llvm.memset.p0.i64(ptr noundef nonnull align 8 dereferenceable(16) %28, i8 0, i64 16, i1 false)
  %invariant.gep = getelementptr i8, ptr %0, i64 1168
  br label %.preheader

.preheader:                                       ; preds = %14, %.preheader
  %indvar = phi i64 [ 0, %14 ], [ %indvar.next, %.preheader ]
  %35 = shl nuw nsw i64 %indvar, 5
  %gep = getelementptr i8, ptr %invariant.gep, i64 %35
  tail call void @llvm.memset.p0.i64(ptr noundef nonnull align 8 dereferenceable(24) %gep, i8 0, i64 24, i1 false), !tbaa !96
  %indvar.next = add nuw nsw i64 %indvar, 1
  %exitcond.not = icmp eq i64 %indvar.next, 5
  br i1 %exitcond.not, label %.loopexit, label %.preheader

.loopexit:                                        ; preds = %.preheader, %13, %10, %5
  %.043 = phi i32 [ -21, %5 ], [ -23, %10 ], [ -22, %13 ], [ 0, %.preheader ]
  ret i32 %.043
}